target datalayout = "e-m:e-p270:32:32-p271:32:32-p272:64:64-i64:64-i128:128-f80:128-n8:16:32:64-S128"
target triple = "x86_64-pc-linux-gnu"

%"class.JvmtiAgentList::Iterator" = type <{ ptr, i32, [4 x i8] }>

; Function Attrs: mustprogress nounwind uwtable
define hidden noundef ptr @_ZNK14JvmtiAgentList8Iterator6selectEP10JvmtiAgent(ptr noundef nonnull align 8 dereferenceable(12) %0, ptr noundef %1) #1 align 2 {
  %3 = alloca ptr, align 8
  %4 = alloca ptr, align 8
  %5 = alloca ptr, align 8
  store ptr %0, ptr %4, align 8
  store ptr %1, ptr %5, align 8
  %6 = load ptr, ptr %4, align 8
  br label %7

7:                                                ; preds = %58, %2
  %8 = load ptr, ptr %5, align 8
  %9 = icmp ne ptr %8, null
  br i1 %9, label %10, label %61

10:                                               ; preds = %7
  %11 = getelementptr inbounds %"class.JvmtiAgentList::Iterator", ptr %6, i32 0, i32 1
  %12 = load i32, ptr %11, align 8
  %13 = icmp eq i32 %12, 4
  br i1 %13, label %14, label %16

14:                                               ; preds = %10
  %15 = load ptr, ptr %5, align 8
  store ptr %15, ptr %3, align 8
  br label %62

16:                                               ; preds = %10
  %17 = getelementptr inbounds %"class.JvmtiAgentList::Iterator", ptr %6, i32 0, i32 1
  %18 = load i32, ptr %17, align 8
  %19 = icmp eq i32 %18, 3
  br i1 %19, label %20, label %26

20:                                               ; preds = %16
  %21 = load ptr, ptr %5, align 8
  %22 = call noundef zeroext i1 @_ZNK10JvmtiAgent7is_xrunEv(ptr noundef nonnull align 8 dereferenceable(86) %21)
  br i1 %22, label %25, label %23

23:                                               ; preds = %20
  %24 = load ptr, ptr %5, align 8
  store ptr %24, ptr %3, align 8
  br label %62

25:                                               ; preds = %20
  br label %57

26:                                               ; preds = %16
  %27 = getelementptr inbounds %"class.JvmtiAgentList::Iterator", ptr %6, i32 0, i32 1
  %28 = load i32, ptr %27, align 8
  %29 = icmp eq i32 %28, 0
  br i1 %29, label %30, label %36

30:                                               ; preds = %26
  %31 = load ptr, ptr %5, align 8
  %32 = call noundef zeroext i1 @_ZNK10JvmtiAgent8is_jplisEv(ptr noundef nonnull align 8 dereferenceable(86) %31)
  br i1 %32, label %33, label %35

33:                                               ; preds = %30
  %34 = load ptr, ptr %5, align 8
  store ptr %34, ptr %3, align 8
  br label %62

35:                                               ; preds = %30
  br label %56

36:                                               ; preds = %26
  %37 = getelementptr inbounds %"class.JvmtiAgentList::Iterator", ptr %6, i32 0, i32 1
  %38 = load i32, ptr %37, align 8
  %39 = icmp eq i32 %38, 1
  br i1 %39, label %40, label %49

40:                                               ; preds = %36
  %41 = load ptr, ptr %5, align 8
  %42 = call noundef zeroext i1 @_ZNK10JvmtiAgent8is_jplisEv(ptr noundef nonnull align 8 dereferenceable(86) %41)
  br i1 %42, label %48, label %43

43:                                               ; preds = %40
  %44 = load ptr, ptr %5, align 8
  %45 = call noundef zeroext i1 @_ZNK10JvmtiAgent7is_xrunEv(ptr noundef nonnull align 8 dereferenceable(86) %44)
  br i1 %45, label %48, label %46

46:                                               ; preds = %43
  %47 = load ptr, ptr %5, align 8
  store ptr %47, ptr %3, align 8
  br label %62

48:                                               ; preds = %43, %40
  br label %55

49:                                               ; preds = %36
  %50 = load ptr, ptr %5, align 8
  %51 = call noundef zeroext i1 @_ZNK10JvmtiAgent7is_xrunEv(ptr noundef nonnull align 8 dereferenceable(86) %50)
  br i1 %51, label %52, label %54

52:                                               ; preds = %49
  %53 = load ptr, ptr %5, align 8
  store ptr %53, ptr %3, align 8
  br label %62

54:                                               ; preds = %49
  br label %55

55:                                               ; preds = %54, %48
  br label %56

56:                                               ; preds = %55, %35
  br label %57

57:                                               ; preds = %56, %25
  br label %58

58:                                               ; preds = %57
  %59 = load ptr, ptr %5, align 8
  %60 = call noundef ptr @_ZNK10JvmtiAgent4nextEv(ptr noundef nonnull align 8 dereferenceable(86) %59)
  store ptr %60, ptr %5, align 8
  br label %7, !llvm.loop !6

61:                                               ; preds = %7
  store ptr null, ptr %3, align 8
  br label %62

62:                                               ; preds = %61, %52, %46, %33, %23, %14
  %63 = load ptr, ptr %3, align 8
  ret ptr %63
}