; Function Attrs: mustprogress nounwind uwtable
define hidden noundef ptr @_ZNK14JvmtiAgentList8Iterator6selectEP10JvmtiAgent(ptr nocapture noundef nonnull readonly align 8 dereferenceable(12) %0, ptr noundef %1) local_unnamed_addr #0 align 2 {
  %.not16 = icmp eq ptr %1, null
  br i1 %.not16, label %._crit_edge, label %.lr.ph

.lr.ph:                                           ; preds = %2
  %3 = getelementptr inbounds i8, ptr %0, i64 8
  br label %4

4:                                                ; preds = %.lr.ph, %16
  %.017 = phi ptr [ %1, %.lr.ph ], [ %17, %16 ]
  %5 = load i32, ptr %3, align 8
  switch i32 %5, label %14 [
    i32 4, label %._crit_edge
    i32 3, label %6
    i32 0, label %8
    i32 1, label %10
  ]

6:                                                ; preds = %4
  %7 = tail call noundef zeroext i1 @_ZNK10JvmtiAgent7is_xrunEv(ptr noundef nonnull align 8 dereferenceable(86) %.017) #9
  br i1 %7, label %16, label %._crit_edge

8:                                                ; preds = %4
  %9 = tail call noundef zeroext i1 @_ZNK10JvmtiAgent8is_jplisEv(ptr noundef nonnull align 8 dereferenceable(86) %.017) #9
  br i1 %9, label %._crit_edge, label %16

10:                                               ; preds = %4
  %11 = tail call noundef zeroext i1 @_ZNK10JvmtiAgent8is_jplisEv(ptr noundef nonnull align 8 dereferenceable(86) %.017) #9
  br i1 %11, label %16, label %12

12:                                               ; preds = %10
  %13 = tail call noundef zeroext i1 @_ZNK10JvmtiAgent7is_xrunEv(ptr noundef nonnull align 8 dereferenceable(86) %.017) #9
  br i1 %13, label %16, label %._crit_edge

14:                                               ; preds = %4
  %15 = tail call noundef zeroext i1 @_ZNK10JvmtiAgent7is_xrunEv(ptr noundef nonnull align 8 dereferenceable(86) %.017) #9
  br i1 %15, label %._crit_edge, label %16

16:                                               ; preds = %6, %12, %10, %14, %8
  %17 = tail call noundef ptr @_ZNK10JvmtiAgent4nextEv(ptr noundef nonnull align 8 dereferenceable(86) %.017) #9
  %.not = icmp eq ptr %17, null
  br i1 %.not, label %._crit_edge, label %4, !llvm.loop !6

._crit_edge:                                      ; preds = %6, %8, %4, %12, %14, %16, %2
  %.0.lcssa = phi ptr [ null, %2 ], [ null, %16 ], [ %.017, %14 ], [ %.017, %12 ], [ %.017, %4 ], [ %.017, %8 ], [ %.017, %6 ]
  ret ptr %.0.lcssa
}